target datalayout = "e-m:e-p270:32:32-p271:32:32-p272:64:64-i64:64-i128:128-f80:128-n8:16:32:64-S128"
target triple = "x86_64-pc-linux-gnu"

%struct.SurfaceDataRasInfo = type { %struct.SurfaceDataBounds, ptr, i32, i32, i32, i32, ptr, ptr, ptr, ptr, ptr, ptr, i32, %union.anon.0 }
%struct.SurfaceDataBounds = type { i32, i32, i32, i32 }
%union.anon.0 = type { ptr, [56 x i8] }

; Function Attrs: nounwind uwtable
define hidden void @ByteIndexedToIntArgbBmConvert(ptr noundef %0, ptr noundef %1, i32 noundef %2, i32 noundef %3, ptr noundef %4, ptr noundef %5, ptr noundef %6, ptr noundef %7) #1 {
  %9 = alloca ptr, align 8
  %10 = alloca ptr, align 8
  %11 = alloca i32, align 4
  %12 = alloca i32, align 4
  %13 = alloca ptr, align 8
  %14 = alloca ptr, align 8
  %15 = alloca ptr, align 8
  %16 = alloca ptr, align 8
  %17 = alloca ptr, align 8
  %18 = alloca ptr, align 8
  %19 = alloca ptr, align 8
  %20 = alloca i32, align 4
  %21 = alloca i32, align 4
  %22 = alloca i32, align 4
  %23 = alloca i32, align 4
  store ptr %0, ptr %9, align 8
  store ptr %1, ptr %10, align 8
  store i32 %2, ptr %11, align 4
  store i32 %3, ptr %12, align 4
  store ptr %4, ptr %13, align 8
  store ptr %5, ptr %14, align 8
  store ptr %6, ptr %15, align 8
  store ptr %7, ptr %16, align 8
  %24 = load ptr, ptr %13, align 8
  %25 = getelementptr inbounds %struct.SurfaceDataRasInfo, ptr %24, i32 0, i32 6
  %26 = load ptr, ptr %25, align 8
  store ptr %26, ptr %17, align 8
  br label %27

27:                                               ; preds = %8
  %28 = load ptr, ptr %9, align 8
  store ptr %28, ptr %18, align 8
  %29 = load ptr, ptr %10, align 8
  store ptr %29, ptr %19, align 8
  %30 = load ptr, ptr %13, align 8
  %31 = getelementptr inbounds %struct.SurfaceDataRasInfo, ptr %30, i32 0, i32 4
  %32 = load i32, ptr %31, align 8
  store i32 %32, ptr %20, align 4
  %33 = load ptr, ptr %14, align 8
  %34 = getelementptr inbounds %struct.SurfaceDataRasInfo, ptr %33, i32 0, i32 4
  %35 = load i32, ptr %34, align 8
  store i32 %35, ptr %21, align 4
  %36 = load i32, ptr %11, align 4
  %37 = mul i32 %36, 1
  %38 = load i32, ptr %20, align 4
  %39 = sub i32 %38, %37
  store i32 %39, ptr %20, align 4
  %40 = load i32, ptr %11, align 4
  %41 = mul i32 %40, 4
  %42 = load i32, ptr %21, align 4
  %43 = sub i32 %42, %41
  store i32 %43, ptr %21, align 4
  br label %44

44:                                               ; preds = %88, %27
  %45 = load i32, ptr %11, align 4
  store i32 %45, ptr %22, align 4
  br label %46

46:                                               ; preds = %71, %44
  br label %47

47:                                               ; preds = %46
  %48 = load ptr, ptr %17, align 8
  %49 = load ptr, ptr %18, align 8
  %50 = getelementptr inbounds i8, ptr %49, i64 0
  %51 = load i8, ptr %50, align 1
  %52 = zext i8 %51 to i64
  %53 = getelementptr inbounds i32, ptr %48, i64 %52
  %54 = load i32, ptr %53, align 4
  store i32 %54, ptr %23, align 4
  %55 = load i32, ptr %23, align 4
  %56 = load i32, ptr %23, align 4
  %57 = ashr i32 %56, 31
  %58 = shl i32 %57, 24
  %59 = or i32 %55, %58
  %60 = load ptr, ptr %19, align 8
  %61 = getelementptr inbounds i32, ptr %60, i64 0
  store i32 %59, ptr %61, align 4
  br label %62

62:                                               ; preds = %47
  %63 = load ptr, ptr %18, align 8
  %64 = ptrtoint ptr %63 to i64
  %65 = add nsw i64 %64, 1
  %66 = inttoptr i64 %65 to ptr
  store ptr %66, ptr %18, align 8
  %67 = load ptr, ptr %19, align 8
  %68 = ptrtoint ptr %67 to i64
  %69 = add nsw i64 %68, 4
  %70 = inttoptr i64 %69 to ptr
  store ptr %70, ptr %19, align 8
  br label %71

71:                                               ; preds = %62
  %72 = load i32, ptr %22, align 4
  %73 = add i32 %72, -1
  store i32 %73, ptr %22, align 4
  %74 = icmp ugt i32 %73, 0
  br i1 %74, label %46, label %75, !llvm.loop !11

75:                                               ; preds = %71
  %76 = load ptr, ptr %18, align 8
  %77 = ptrtoint ptr %76 to i64
  %78 = load i32, ptr %20, align 4
  %79 = sext i32 %78 to i64
  %80 = add nsw i64 %77, %79
  %81 = inttoptr i64 %80 to ptr
  store ptr %81, ptr %18, align 8
  %82 = load ptr, ptr %19, align 8
  %83 = ptrtoint ptr %82 to i64
  %84 = load i32, ptr %21, align 4
  %85 = sext i32 %84 to i64
  %86 = add nsw i64 %83, %85
  %87 = inttoptr i64 %86 to ptr
  store ptr %87, ptr %19, align 8
  br label %88

88:                                               ; preds = %75
  %89 = load i32, ptr %12, align 4
  %90 = add i32 %89, -1
  store i32 %90, ptr %12, align 4
  %91 = icmp ugt i32 %90, 0
  br i1 %91, label %44, label %92, !llvm.loop !12

92:                                               ; preds = %88
  br label %93

93:                                               ; preds = %92
  ret void
}