; Function Attrs: nofree norecurse nosync nounwind memory(readwrite, inaccessiblemem: none) uwtable
define hidden void @ByteIndexedToIntArgbBmConvert(ptr noundef %0, ptr noundef %1, i32 noundef %2, i32 noundef %3, ptr nocapture noundef readonly %4, ptr nocapture noundef readonly %5, ptr nocapture readnone %6, ptr nocapture readnone %7) #1 {
  %9 = getelementptr inbounds i8, ptr %4, i64 40
  %10 = load ptr, ptr %9, align 8
  %11 = getelementptr inbounds i8, ptr %4, i64 32
  %12 = load i32, ptr %11, align 8
  %13 = getelementptr inbounds i8, ptr %5, i64 32
  %14 = load i32, ptr %13, align 8
  %15 = sub i32 %12, %2
  %16 = shl i32 %2, 2
  %17 = sub i32 %14, %16
  %18 = sext i32 %15 to i64
  %19 = sext i32 %17 to i64
  br label %20

20:                                               ; preds = %36, %8
  %.024 = phi ptr [ %0, %8 ], [ %38, %36 ]
  %.023 = phi ptr [ %1, %8 ], [ %40, %36 ]
  %.0 = phi i32 [ %3, %8 ], [ %41, %36 ]
  br label %21

21:                                               ; preds = %21, %20
  %.125 = phi ptr [ %.024, %20 ], [ %31, %21 ]
  %.1 = phi ptr [ %.023, %20 ], [ %34, %21 ]
  %.022 = phi i32 [ %2, %20 ], [ %35, %21 ]
  %22 = load i8, ptr %.125, align 1
  %23 = zext i8 %22 to i64
  %24 = getelementptr inbounds i32, ptr %10, i64 %23
  %25 = load i32, ptr %24, align 4
  %26 = ashr i32 %25, 7
  %27 = and i32 %26, -16777216
  %28 = or i32 %27, %25
  store i32 %28, ptr %.1, align 4
  %29 = ptrtoint ptr %.125 to i64
  %30 = add nsw i64 %29, 1
  %31 = inttoptr i64 %30 to ptr
  %32 = ptrtoint ptr %.1 to i64
  %33 = add nsw i64 %32, 4
  %34 = inttoptr i64 %33 to ptr
  %35 = add i32 %.022, -1
  %.not = icmp eq i32 %35, 0
  br i1 %.not, label %36, label %21, !llvm.loop !11

36:                                               ; preds = %21
  %37 = add nsw i64 %30, %18
  %38 = inttoptr i64 %37 to ptr
  %39 = add nsw i64 %33, %19
  %40 = inttoptr i64 %39 to ptr
  %41 = add i32 %.0, -1
  %.not27 = icmp eq i32 %41, 0
  br i1 %.not27, label %42, label %20, !llvm.loop !12

42:                                               ; preds = %36
  ret void
}